; Function Attrs: mustprogress uwtable
define void @_ZN8QuantLib12SyntheticCDO7results5resetEv(ptr noundef nonnull align 8 dereferenceable(160) %this) unnamed_addr #8 align 2 personality ptr @__gxx_personality_v0 {
entry:
  %ref.tmp2.i = alloca %"class.QuantLib::Date", align 8
  %errorEstimate.i = getelementptr inbounds nuw i8, ptr %this, i64 16
  store double 0x47EFFFFFE0000000, ptr %errorEstimate.i, align 8, !tbaa !175
  %value.i = getelementptr inbounds nuw i8, ptr %this, i64 8
  store double 0x47EFFFFFE0000000, ptr %value.i, align 8, !tbaa !173
  call void @llvm.lifetime.start.p0(i64 8, ptr nonnull %ref.tmp2.i) #33
  call void @_ZN8QuantLib4DateC1Ev(ptr noundef nonnull align 8 dereferenceable(8) %ref.tmp2.i)
  %valuationDate.i = getelementptr inbounds nuw i8, ptr %this, i64 24
  %0 = load i64, ptr %ref.tmp2.i, align 8, !tbaa !37
  store i64 %0, ptr %valuationDate.i, align 8, !tbaa !37
  call void @llvm.lifetime.end.p0(i64 8, ptr nonnull %ref.tmp2.i) #33
  %additionalResults.i = getelementptr inbounds nuw i8, ptr %this, i64 32
  %_M_parent.i.i.i.i.i = getelementptr inbounds i8, ptr %this, i64 48
  %1 = load ptr, ptr %_M_parent.i.i.i.i.i, align 8, !tbaa !13
  invoke void @_ZNSt8_Rb_treeINSt7__cxx1112basic_stringIcSt11char_traitsIcESaIcEEESt4pairIKS5_N5boost3anyEESt10_Select1stISA_ESt4lessIS5_ESaISA_EE8_M_eraseEPSt13_Rb_tree_nodeISA_E(ptr noundef nonnull align 8 dereferenceable(48) %additionalResults.i, ptr noundef %1)
          to label %_ZN8QuantLib10Instrument7results5resetEv.exit unwind label %terminate.lpad.i.i.i

terminate.lpad.i.i.i:                             ; preds = %entry
  %2 = landingpad { ptr, i32 }
          catch ptr null
  %3 = extractvalue { ptr, i32 } %2, 0
  call void @__clang_call_terminate(ptr %3) #34
  unreachable

_ZN8QuantLib10Instrument7results5resetEv.exit:    ; preds = %entry
  %add.ptr.i.i.i = getelementptr inbounds i8, ptr %this, i64 40
  store ptr null, ptr %_M_parent.i.i.i.i.i, align 8, !tbaa !13
  %_M_left.i.i.i.i = getelementptr inbounds i8, ptr %this, i64 56
  store ptr %add.ptr.i.i.i, ptr %_M_left.i.i.i.i, align 8, !tbaa !14
  %_M_right.i.i.i.i = getelementptr inbounds i8, ptr %this, i64 64
  store ptr %add.ptr.i.i.i, ptr %_M_right.i.i.i.i, align 8, !tbaa !15
  %_M_node_count.i.i.i.i = getelementptr inbounds i8, ptr %this, i64 72
  store i64 0, ptr %_M_node_count.i.i.i.i, align 8, !tbaa !16
  %premiumValue = getelementptr inbounds nuw i8, ptr %this, i64 80
  store double 0x47EFFFFFE0000000, ptr %premiumValue, align 8, !tbaa !166
  %protectionValue = getelementptr inbounds nuw i8, ptr %this, i64 88
  store double 0x47EFFFFFE0000000, ptr %protectionValue, align 8, !tbaa !169
  %upfrontPremiumValue = getelementptr inbounds nuw i8, ptr %this, i64 96
  store double 0x47EFFFFFE0000000, ptr %upfrontPremiumValue, align 8, !tbaa !170
  %remainingNotional = getelementptr inbounds nuw i8, ptr %this, i64 104
  store double 0x47EFFFFFE0000000, ptr %remainingNotional, align 8, !tbaa !171
  %error = getelementptr inbounds nuw i8, ptr %this, i64 128
  store i64 0, ptr %error, align 8, !tbaa !172
  %expectedTrancheLoss = getelementptr inbounds nuw i8, ptr %this, i64 136
  %4 = load ptr, ptr %expectedTrancheLoss, align 8, !tbaa !136
  %_M_finish.i.i = getelementptr inbounds nuw i8, ptr %this, i64 144
  %5 = load ptr, ptr %_M_finish.i.i, align 8, !tbaa !151
  %tobool.not.i.i = icmp eq ptr %5, %4
  br i1 %tobool.not.i.i, label %_ZNSt6vectorIdSaIdEE5clearEv.exit, label %invoke.cont.i.i

invoke.cont.i.i:                                  ; preds = %_ZN8QuantLib10Instrument7results5resetEv.exit
  store ptr %4, ptr %_M_finish.i.i, align 8, !tbaa !151
  br label %_ZNSt6vectorIdSaIdEE5clearEv.exit

_ZNSt6vectorIdSaIdEE5clearEv.exit:                ; preds = %_ZN8QuantLib10Instrument7results5resetEv.exit, %invoke.cont.i.i
  ret void
}